; Function Attrs: null_pointer_is_valid sspstrong uwtable
define ptr @ptvcursor_add_with_subtree(ptr noundef captures(address_is_null) %0, i32 noundef %1, i32 noundef %2, i32 noundef %3, i32 noundef %4) local_unnamed_addr #0 {
  %6 = tail call ptr @ptvcursor_add_no_advance(ptr noundef %0, i32 noundef %1, i32 noundef %2, i32 noundef %3)
  %7 = tail call ptr @ptvcursor_push_subtree(ptr noundef %0, ptr noundef %6, i32 noundef %4)
  %8 = icmp eq i32 %2, -1
  br i1 %8, label %9, label %21

9:                                                ; preds = %5
  %10 = getelementptr inbounds nuw i8, ptr %0, i64 16
  %11 = load i8, ptr %10, align 8
  %.not.i.i = icmp eq i8 %11, 0
  br i1 %.not.i.i, label %12, label %ptvcursor_subtree_set_item.exit.i

12:                                               ; preds = %9
  tail call void (ptr, ...) @proto_report_dissector_bug(ptr noundef nonnull @.str.62, ptr noundef nonnull @.str.1, i32 noundef 1339, ptr noundef nonnull @.str.236) #37
  unreachable

ptvcursor_subtree_set_item.exit.i:                ; preds = %9
  %13 = getelementptr inbounds nuw i8, ptr %0, i64 8
  %14 = load ptr, ptr %13, align 8
  %15 = zext i8 %11 to i64
  %16 = getelementptr %struct.__subtree_lvl, ptr %14, i64 %15
  %17 = getelementptr i8, ptr %16, i64 -24
  %18 = getelementptr i8, ptr %16, i64 -16
  store ptr %6, ptr %18, align 8
  %19 = getelementptr inbounds nuw i8, ptr %0, i64 40
  %20 = load i32, ptr %19, align 8
  store i32 %20, ptr %17, align 8
  br label %21

21:                                               ; preds = %ptvcursor_subtree_set_item.exit.i, %5
  %.not.i6.i = icmp eq ptr %0, null
  br i1 %.not.i6.i, label %ptvcursor_add_subtree_item.exit, label %22

22:                                               ; preds = %21
  %23 = getelementptr inbounds nuw i8, ptr %0, i64 24
  %24 = load ptr, ptr %23, align 8
  br label %ptvcursor_add_subtree_item.exit

ptvcursor_add_subtree_item.exit:                  ; preds = %21, %22
  %.0.i.i = phi ptr [ %24, %22 ], [ null, %21 ]
  ret ptr %.0.i.i
}